target datalayout = "e-m:e-p270:32:32-p271:32:32-p272:64:64-i64:64-i128:128-f80:128-n8:16:32:64-S128"
target triple = "x86_64-unknown-linux-gnu"

%"class.(anonymous namespace)::Demangler" = type { ptr, i8, %"class.llvh::ms_demangle::ArenaAllocator", %"struct.(anonymous namespace)::BackrefContext" }
%"class.llvh::ms_demangle::ArenaAllocator" = type { ptr }
%"struct.(anonymous namespace)::BackrefContext" = type { [10 x ptr], i64, [10 x ptr], i64 }
%class.StringView = type { ptr, ptr }
%"struct.std::pair.2" = type { i8, i8 }

; Function Attrs: mustprogress nounwind uwtable
define linkonce_odr hidden void @_ZNSt4pairIN4llvh11ms_demangle10QualifiersEbEC2IS2_bTnNSt9enable_ifIXaaclsr5_PCCPE22_MoveConstructiblePairIT_T0_EEclsr5_PCCPE30_ImplicitlyMoveConvertiblePairIS6_S7_EEEbE4typeELb1EEEOS6_OS7_(ptr noundef nonnull align 1 dereferenceable(2) %this, ptr noundef nonnull align 1 dereferenceable(1) %__x, ptr noundef nonnull align 1 dereferenceable(1) %__y) unnamed_addr #0 comdat align 2 {
entry:
  %this.addr = alloca ptr, align 8
  %__x.addr = alloca ptr, align 8
  %__y.addr = alloca ptr, align 8
  store ptr %this, ptr %this.addr, align 8
  store ptr %__x, ptr %__x.addr, align 8
  store ptr %__y, ptr %__y.addr, align 8
  %this1 = load ptr, ptr %this.addr, align 8
  %first = getelementptr inbounds %"struct.std::pair.2", ptr %this1, i32 0, i32 0
  %0 = load ptr, ptr %__x.addr, align 8
  %1 = load i8, ptr %0, align 1
  store i8 %1, ptr %first, align 1
  %second = getelementptr inbounds %"struct.std::pair.2", ptr %this1, i32 0, i32 1
  %2 = load ptr, ptr %__y.addr, align 8
  %3 = load i8, ptr %2, align 1
  %tobool = trunc i8 %3 to i1
  %frombool = zext i1 %tobool to i8
  store i8 %frombool, ptr %second, align 1
  ret void
}

; Function Attrs: mustprogress nounwind uwtable
define linkonce_odr hidden i16 @_ZSt9make_pairIN4llvh11ms_demangle10QualifiersEbESt4pairINSt25__strip_reference_wrapperINSt5decayIT_E4typeEE6__typeENS4_INS5_IT0_E4typeEE6__typeEEOS6_OSB_(ptr noundef nonnull align 1 dereferenceable(1) %__x, ptr noundef nonnull align 1 dereferenceable(1) %__y) #0 comdat {
entry:
  %retval = alloca %"struct.std::pair.2", align 1
  %__x.addr = alloca ptr, align 8
  %__y.addr = alloca ptr, align 8
  store ptr %__x, ptr %__x.addr, align 8
  store ptr %__y, ptr %__y.addr, align 8
  %0 = load ptr, ptr %__x.addr, align 8
  %1 = load ptr, ptr %__y.addr, align 8
  call void @_ZNSt4pairIN4llvh11ms_demangle10QualifiersEbEC2IS2_bTnNSt9enable_ifIXaaclsr5_PCCPE22_MoveConstructiblePairIT_T0_EEclsr5_PCCPE30_ImplicitlyMoveConvertiblePairIS6_S7_EEEbE4typeELb1EEEOS6_OS7_(ptr noundef nonnull align 1 dereferenceable(2) %retval, ptr noundef nonnull align 1 dereferenceable(1) %0, ptr noundef nonnull align 1 dereferenceable(1) %1)
  %2 = load i16, ptr %retval, align 1
  ret i16 %2
}

; Function Attrs: mustprogress nounwind uwtable
define linkonce_odr hidden noundef signext i8 @_ZN10StringView8popFrontEv(ptr noundef nonnull align 8 dereferenceable(16) %this) #0 comdat align 2 {
entry:
  %this.addr = alloca ptr, align 8
  store ptr %this, ptr %this.addr, align 8
  %this1 = load ptr, ptr %this.addr, align 8
  %First = getelementptr inbounds %class.StringView, ptr %this1, i32 0, i32 0
  %0 = load ptr, ptr %First, align 8
  %incdec.ptr = getelementptr inbounds i8, ptr %0, i32 1
  store ptr %incdec.ptr, ptr %First, align 8
  %1 = load i8, ptr %0, align 1
  ret i8 %1
}

; Function Attrs: mustprogress nounwind uwtable
define internal i16 @_ZN12_GLOBAL__N_19Demangler18demangleQualifiersER10StringView(ptr noundef nonnull align 8 dereferenceable(200) %this, ptr noundef nonnull align 8 dereferenceable(16) %MangledName) #0 align 2 {
entry:
  %retval = alloca %"struct.std::pair.2", align 1
  %this.addr = alloca ptr, align 8
  %MangledName.addr = alloca ptr, align 8
  %ref.tmp = alloca i8, align 1
  %ref.tmp2 = alloca i8, align 1
  %ref.tmp5 = alloca i8, align 1
  %ref.tmp6 = alloca i8, align 1
  %ref.tmp9 = alloca i8, align 1
  %ref.tmp10 = alloca i8, align 1
  %ref.tmp13 = alloca i8, align 1
  %ref.tmp14 = alloca i8, align 1
  %ref.tmp17 = alloca i8, align 1
  %ref.tmp18 = alloca i8, align 1
  %ref.tmp21 = alloca i8, align 1
  %ref.tmp22 = alloca i8, align 1
  %ref.tmp25 = alloca i8, align 1
  %ref.tmp26 = alloca i8, align 1
  %ref.tmp29 = alloca i8, align 1
  %ref.tmp30 = alloca i8, align 1
  %ref.tmp32 = alloca i8, align 1
  %ref.tmp33 = alloca i8, align 1
  store ptr %this, ptr %this.addr, align 8
  store ptr %MangledName, ptr %MangledName.addr, align 8
  %this1 = load ptr, ptr %this.addr, align 8
  %0 = load ptr, ptr %MangledName.addr, align 8
  %call = call noundef signext i8 @_ZN10StringView8popFrontEv(ptr noundef nonnull align 8 dereferenceable(16) %0)
  %conv = sext i8 %call to i32
  switch i32 %conv, label %sw.epilog [
    i32 81, label %sw.bb
    i32 82, label %sw.bb4
    i32 83, label %sw.bb8
    i32 84, label %sw.bb12
    i32 65, label %sw.bb16
    i32 66, label %sw.bb20
    i32 67, label %sw.bb24
    i32 68, label %sw.bb28
  ]

sw.bb:                                            ; preds = %entry
  store i8 0, ptr %ref.tmp, align 1
  store i8 1, ptr %ref.tmp2, align 1
  %call3 = call i16 @_ZSt9make_pairIN4llvh11ms_demangle10QualifiersEbESt4pairINSt25__strip_reference_wrapperINSt5decayIT_E4typeEE6__typeENS4_INS5_IT0_E4typeEE6__typeEEOS6_OSB_(ptr noundef nonnull align 1 dereferenceable(1) %ref.tmp, ptr noundef nonnull align 1 dereferenceable(1) %ref.tmp2)
  store i16 %call3, ptr %retval, align 1
  br label %return

sw.bb4:                                           ; preds = %entry
  store i8 1, ptr %ref.tmp5, align 1
  store i8 1, ptr %ref.tmp6, align 1
  %call7 = call i16 @_ZSt9make_pairIN4llvh11ms_demangle10QualifiersEbESt4pairINSt25__strip_reference_wrapperINSt5decayIT_E4typeEE6__typeENS4_INS5_IT0_E4typeEE6__typeEEOS6_OSB_(ptr noundef nonnull align 1 dereferenceable(1) %ref.tmp5, ptr noundef nonnull align 1 dereferenceable(1) %ref.tmp6)
  store i16 %call7, ptr %retval, align 1
  br label %return

sw.bb8:                                           ; preds = %entry
  store i8 2, ptr %ref.tmp9, align 1
  store i8 1, ptr %ref.tmp10, align 1
  %call11 = call i16 @_ZSt9make_pairIN4llvh11ms_demangle10QualifiersEbESt4pairINSt25__strip_reference_wrapperINSt5decayIT_E4typeEE6__typeENS4_INS5_IT0_E4typeEE6__typeEEOS6_OSB_(ptr noundef nonnull align 1 dereferenceable(1) %ref.tmp9, ptr noundef nonnull align 1 dereferenceable(1) %ref.tmp10)
  store i16 %call11, ptr %retval, align 1
  br label %return

sw.bb12:                                          ; preds = %entry
  store i8 3, ptr %ref.tmp13, align 1
  store i8 1, ptr %ref.tmp14, align 1
  %call15 = call i16 @_ZSt9make_pairIN4llvh11ms_demangle10QualifiersEbESt4pairINSt25__strip_reference_wrapperINSt5decayIT_E4typeEE6__typeENS4_INS5_IT0_E4typeEE6__typeEEOS6_OSB_(ptr noundef nonnull align 1 dereferenceable(1) %ref.tmp13, ptr noundef nonnull align 1 dereferenceable(1) %ref.tmp14)
  store i16 %call15, ptr %retval, align 1
  br label %return

sw.bb16:                                          ; preds = %entry
  store i8 0, ptr %ref.tmp17, align 1
  store i8 0, ptr %ref.tmp18, align 1
  %call19 = call i16 @_ZSt9make_pairIN4llvh11ms_demangle10QualifiersEbESt4pairINSt25__strip_reference_wrapperINSt5decayIT_E4typeEE6__typeENS4_INS5_IT0_E4typeEE6__typeEEOS6_OSB_(ptr noundef nonnull align 1 dereferenceable(1) %ref.tmp17, ptr noundef nonnull align 1 dereferenceable(1) %ref.tmp18)
  store i16 %call19, ptr %retval, align 1
  br label %return

sw.bb20:                                          ; preds = %entry
  store i8 1, ptr %ref.tmp21, align 1
  store i8 0, ptr %ref.tmp22, align 1
  %call23 = call i16 @_ZSt9make_pairIN4llvh11ms_demangle10QualifiersEbESt4pairINSt25__strip_reference_wrapperINSt5decayIT_E4typeEE6__typeENS4_INS5_IT0_E4typeEE6__typeEEOS6_OSB_(ptr noundef nonnull align 1 dereferenceable(1) %ref.tmp21, ptr noundef nonnull align 1 dereferenceable(1) %ref.tmp22)
  store i16 %call23, ptr %retval, align 1
  br label %return

sw.bb24:                                          ; preds = %entry
  store i8 2, ptr %ref.tmp25, align 1
  store i8 0, ptr %ref.tmp26, align 1
  %call27 = call i16 @_ZSt9make_pairIN4llvh11ms_demangle10QualifiersEbESt4pairINSt25__strip_reference_wrapperINSt5decayIT_E4typeEE6__typeENS4_INS5_IT0_E4typeEE6__typeEEOS6_OSB_(ptr noundef nonnull align 1 dereferenceable(1) %ref.tmp25, ptr noundef nonnull align 1 dereferenceable(1) %ref.tmp26)
  store i16 %call27, ptr %retval, align 1
  br label %return

sw.bb28:                                          ; preds = %entry
  store i8 3, ptr %ref.tmp29, align 1
  store i8 0, ptr %ref.tmp30, align 1
  %call31 = call i16 @_ZSt9make_pairIN4llvh11ms_demangle10QualifiersEbESt4pairINSt25__strip_reference_wrapperINSt5decayIT_E4typeEE6__typeENS4_INS5_IT0_E4typeEE6__typeEEOS6_OSB_(ptr noundef nonnull align 1 dereferenceable(1) %ref.tmp29, ptr noundef nonnull align 1 dereferenceable(1) %ref.tmp30)
  store i16 %call31, ptr %retval, align 1
  br label %return

sw.epilog:                                        ; preds = %entry
  %Error = getelementptr inbounds %"class.(anonymous namespace)::Demangler", ptr %this1, i32 0, i32 1
  store i8 1, ptr %Error, align 8
  store i8 0, ptr %ref.tmp32, align 1
  store i8 0, ptr %ref.tmp33, align 1
  %call34 = call i16 @_ZSt9make_pairIN4llvh11ms_demangle10QualifiersEbESt4pairINSt25__strip_reference_wrapperINSt5decayIT_E4typeEE6__typeENS4_INS5_IT0_E4typeEE6__typeEEOS6_OSB_(ptr noundef nonnull align 1 dereferenceable(1) %ref.tmp32, ptr noundef nonnull align 1 dereferenceable(1) %ref.tmp33)
  store i16 %call34, ptr %retval, align 1
  br label %return

return:                                           ; preds = %sw.epilog, %sw.bb28, %sw.bb24, %sw.bb20, %sw.bb16, %sw.bb12, %sw.bb8, %sw.bb4, %sw.bb
  %1 = load i16, ptr %retval, align 1
  ret i16 %1
}