; Function Attrs: mustprogress nofree norecurse nosync nounwind willreturn memory(read, argmem: readwrite, inaccessiblemem: none) uwtable
define internal fastcc noundef i16 @_ZN12_GLOBAL__N_19Demangler18demangleQualifiersER10StringView(ptr nocapture noundef nonnull writeonly align 8 dereferenceable(200) %this, ptr nocapture noundef nonnull align 8 dereferenceable(16) %MangledName) unnamed_addr #13 align 2 {
entry:
  %0 = load ptr, ptr %MangledName, align 8
  %incdec.ptr.i = getelementptr inbounds i8, ptr %0, i64 1
  store ptr %incdec.ptr.i, ptr %MangledName, align 8
  %1 = load i8, ptr %0, align 1
  %switch.tableidx = add i8 %1, -65
  %2 = icmp ult i8 %switch.tableidx, 20
  br i1 %2, label %switch.hole_check, label %sw.epilog

sw.epilog:                                        ; preds = %switch.hole_check, %entry
  %Error = getelementptr inbounds i8, ptr %this, i64 8
  store i8 1, ptr %Error, align 8
  br label %return

switch.hole_check:                                ; preds = %entry
  %switch.maskindex = zext nneg i8 %switch.tableidx to i32
  %switch.shifted = lshr i32 983055, %switch.maskindex
  %3 = and i32 %switch.shifted, 1
  %switch.lobit.not = icmp eq i32 %3, 0
  br i1 %switch.lobit.not, label %sw.epilog, label %switch.lookup

switch.lookup:                                    ; preds = %switch.hole_check
  %4 = zext nneg i8 %switch.tableidx to i64
  %switch.gep = getelementptr inbounds [20 x i16], ptr @switch.table._ZN12_GLOBAL__N_19Demangler18demangleQualifiersER10StringView, i64 0, i64 %4
  %switch.load = load i16, ptr %switch.gep, align 2
  br label %return

return:                                           ; preds = %switch.lookup, %sw.epilog
  %retval.sroa.0.0 = phi i16 [ 0, %sw.epilog ], [ %switch.load, %switch.lookup ]
  ret i16 %retval.sroa.0.0
}